; Function Attrs: nounwind uwtable
define dso_local noundef zeroext i1 @XLogArchiveIsBusy(ptr noundef %0) local_unnamed_addr #0 {
  %2 = alloca [1024 x i8], align 16
  %3 = alloca %struct.stat, align 8
  call void @llvm.lifetime.start.p0(i64 1024, ptr nonnull %2) #11
  call void @llvm.lifetime.start.p0(i64 144, ptr nonnull %3) #11
  %4 = call i32 (ptr, i64, ptr, ...) @pg_snprintf(ptr noundef nonnull %2, i64 noundef 1024, ptr noundef nonnull @.str.19, ptr noundef %0, ptr noundef nonnull @.str.17) #11
  %5 = call i32 @stat(ptr noundef nonnull %2, ptr noundef nonnull %3) #11
  %6 = icmp eq i32 %5, 0
  br i1 %6, label %23, label %7

7:                                                ; preds = %1
  %8 = call i32 (ptr, i64, ptr, ...) @pg_snprintf(ptr noundef nonnull %2, i64 noundef 1024, ptr noundef nonnull @.str.19, ptr noundef %0, ptr noundef nonnull @.str.13) #11
  %9 = call i32 @stat(ptr noundef nonnull %2, ptr noundef nonnull %3) #11
  %10 = icmp eq i32 %9, 0
  br i1 %10, label %23, label %11

11:                                               ; preds = %7
  %12 = call i32 (ptr, i64, ptr, ...) @pg_snprintf(ptr noundef nonnull %2, i64 noundef 1024, ptr noundef nonnull @.str.19, ptr noundef %0, ptr noundef nonnull @.str.17) #11
  %13 = call i32 @stat(ptr noundef nonnull %2, ptr noundef nonnull %3) #11
  %14 = icmp eq i32 %13, 0
  br i1 %14, label %23, label %15

15:                                               ; preds = %11
  %16 = call i32 (ptr, i64, ptr, ...) @pg_snprintf(ptr noundef nonnull %2, i64 noundef 1024, ptr noundef nonnull @.str.1, ptr noundef %0) #11
  %17 = call i32 @stat(ptr noundef nonnull %2, ptr noundef nonnull %3) #11
  %.not = icmp eq i32 %17, 0
  br i1 %.not, label %22, label %18

18:                                               ; preds = %15
  %19 = tail call ptr @__errno_location() #12
  %20 = load i32, ptr %19, align 4
  %21 = icmp eq i32 %20, 2
  br i1 %21, label %23, label %22

22:                                               ; preds = %18, %15
  br label %23

23:                                               ; preds = %18, %11, %7, %1, %22
  %.0 = phi i1 [ true, %22 ], [ false, %1 ], [ true, %7 ], [ false, %11 ], [ false, %18 ]
  call void @llvm.lifetime.end.p0(i64 144, ptr nonnull %3) #11
  call void @llvm.lifetime.end.p0(i64 1024, ptr nonnull %2) #11
  ret i1 %.0
}